target datalayout = "e-m:e-p270:32:32-p271:32:32-p272:64:64-i64:64-i128:128-f80:128-n8:16:32:64-S128"
target triple = "x86_64-pc-linux-gnu"

%struct.JNIEnv_ = type { ptr }
%struct.JNINativeInterface_ = type { ptr, ptr, ptr, ptr, ptr, ptr, ptr, ptr, ptr, ptr, ptr, ptr, ptr, ptr, ptr, ptr, ptr, ptr, ptr, ptr, ptr, ptr, ptr, ptr, ptr, ptr, ptr, ptr, ptr, ptr, ptr, ptr, ptr, ptr, ptr, ptr, ptr, ptr, ptr, ptr, ptr, ptr, ptr, ptr, ptr, ptr, ptr, ptr, ptr, ptr, ptr, ptr, ptr, ptr, ptr, ptr, ptr, ptr, ptr, ptr, ptr, ptr, ptr, ptr, ptr, ptr, ptr, ptr, ptr, ptr, ptr, ptr, ptr, ptr, ptr, ptr, ptr, ptr, ptr, ptr, ptr, ptr, ptr, ptr, ptr, ptr, ptr, ptr, ptr, ptr, ptr, ptr, ptr, ptr, ptr, ptr, ptr, ptr, ptr, ptr, ptr, ptr, ptr, ptr, ptr, ptr, ptr, ptr, ptr, ptr, ptr, ptr, ptr, ptr, ptr, ptr, ptr, ptr, ptr, ptr, ptr, ptr, ptr, ptr, ptr, ptr, ptr, ptr, ptr, ptr, ptr, ptr, ptr, ptr, ptr, ptr, ptr, ptr, ptr, ptr, ptr, ptr, ptr, ptr, ptr, ptr, ptr, ptr, ptr, ptr, ptr, ptr, ptr, ptr, ptr, ptr, ptr, ptr, ptr, ptr, ptr, ptr, ptr, ptr, ptr, ptr, ptr, ptr, ptr, ptr, ptr, ptr, ptr, ptr, ptr, ptr, ptr, ptr, ptr, ptr, ptr, ptr, ptr, ptr, ptr, ptr, ptr, ptr, ptr, ptr, ptr, ptr, ptr, ptr, ptr, ptr, ptr, ptr, ptr, ptr, ptr, ptr, ptr, ptr, ptr, ptr, ptr, ptr, ptr, ptr, ptr, ptr, ptr, ptr, ptr, ptr, ptr, ptr, ptr, ptr, ptr, ptr, ptr, ptr, ptr, ptr, ptr, ptr, ptr, ptr, ptr, ptr, ptr, ptr, ptr }
%struct.user_regs_struct = type { i64, i64, i64, i64, i64, i64, i64, i64, i64, i64, i64, i64, i64, i64, i64, i64, i64, i64, i64, i64, i64, i64, i64, i64, i64, i64, i64 }

@_ZL18p_ps_prochandle_ID = internal global ptr null, align 8
@stdout = external global ptr, align 8
@.str.25 = private unnamed_addr constant [73 x i8] c"WARNING: getThreadIntegerRegisterSet0: get_lwp_regs failed for lwp (%d)\0A\00", align 1

; Function Attrs: mustprogress uwtable
define linkonce_odr hidden noundef i64 @_ZN7JNIEnv_12GetLongFieldEP8_jobjectP9_jfieldID(ptr noundef nonnull align 8 dereferenceable(8) %0, ptr noundef %1, ptr noundef %2) #0 comdat align 2 {
  %4 = alloca ptr, align 8
  %5 = alloca ptr, align 8
  %6 = alloca ptr, align 8
  store ptr %0, ptr %4, align 8
  store ptr %1, ptr %5, align 8
  store ptr %2, ptr %6, align 8
  %7 = load ptr, ptr %4, align 8
  %8 = getelementptr inbounds %struct.JNIEnv_, ptr %7, i32 0, i32 0
  %9 = load ptr, ptr %8, align 8
  %10 = getelementptr inbounds %struct.JNINativeInterface_, ptr %9, i32 0, i32 101
  %11 = load ptr, ptr %10, align 8
  %12 = load ptr, ptr %5, align 8
  %13 = load ptr, ptr %6, align 8
  %14 = call noundef i64 %11(ptr noundef %7, ptr noundef %12, ptr noundef %13)
  ret i64 %14
}

; Function Attrs: mustprogress uwtable
define linkonce_odr hidden void @_ZN7JNIEnv_24ReleaseLongArrayElementsEP11_jlongArrayPli(ptr noundef nonnull align 8 dereferenceable(8) %0, ptr noundef %1, ptr noundef %2, i32 noundef %3) #0 comdat align 2 {
  %5 = alloca ptr, align 8
  %6 = alloca ptr, align 8
  %7 = alloca ptr, align 8
  %8 = alloca i32, align 4
  store ptr %0, ptr %5, align 8
  store ptr %1, ptr %6, align 8
  store ptr %2, ptr %7, align 8
  store i32 %3, ptr %8, align 4
  %9 = load ptr, ptr %5, align 8
  %10 = getelementptr inbounds %struct.JNIEnv_, ptr %9, i32 0, i32 0
  %11 = load ptr, ptr %10, align 8
  %12 = getelementptr inbounds %struct.JNINativeInterface_, ptr %11, i32 0, i32 196
  %13 = load ptr, ptr %12, align 8
  %14 = load ptr, ptr %6, align 8
  %15 = load ptr, ptr %7, align 8
  %16 = load i32, ptr %8, align 4
  call void %13(ptr noundef %9, ptr noundef %14, ptr noundef %15, i32 noundef %16)
  ret void
}

; Function Attrs: mustprogress uwtable
define linkonce_odr hidden noundef ptr @_ZN7JNIEnv_20GetLongArrayElementsEP11_jlongArrayPh(ptr noundef nonnull align 8 dereferenceable(8) %0, ptr noundef %1, ptr noundef %2) #0 comdat align 2 {
  %4 = alloca ptr, align 8
  %5 = alloca ptr, align 8
  %6 = alloca ptr, align 8
  store ptr %0, ptr %4, align 8
  store ptr %1, ptr %5, align 8
  store ptr %2, ptr %6, align 8
  %7 = load ptr, ptr %4, align 8
  %8 = getelementptr inbounds %struct.JNIEnv_, ptr %7, i32 0, i32 0
  %9 = load ptr, ptr %8, align 8
  %10 = getelementptr inbounds %struct.JNINativeInterface_, ptr %9, i32 0, i32 188
  %11 = load ptr, ptr %10, align 8
  %12 = load ptr, ptr %5, align 8
  %13 = load ptr, ptr %6, align 8
  %14 = call noundef ptr %11(ptr noundef %7, ptr noundef %12, ptr noundef %13)
  ret ptr %14
}

; Function Attrs: mustprogress uwtable
define linkonce_odr hidden noundef ptr @_ZN7JNIEnv_17ExceptionOccurredEv(ptr noundef nonnull align 8 dereferenceable(8) %0) #0 comdat align 2 {
  %2 = alloca ptr, align 8
  store ptr %0, ptr %2, align 8
  %3 = load ptr, ptr %2, align 8
  %4 = getelementptr inbounds %struct.JNIEnv_, ptr %3, i32 0, i32 0
  %5 = load ptr, ptr %4, align 8
  %6 = getelementptr inbounds %struct.JNINativeInterface_, ptr %5, i32 0, i32 15
  %7 = load ptr, ptr %6, align 8
  %8 = call noundef ptr %7(ptr noundef %3)
  ret ptr %8
}

; Function Attrs: mustprogress uwtable
define linkonce_odr hidden noundef ptr @_ZN7JNIEnv_12NewLongArrayEi(ptr noundef nonnull align 8 dereferenceable(8) %0, i32 noundef %1) #0 comdat align 2 {
  %3 = alloca ptr, align 8
  %4 = alloca i32, align 4
  store ptr %0, ptr %3, align 8
  store i32 %1, ptr %4, align 4
  %5 = load ptr, ptr %3, align 8
  %6 = getelementptr inbounds %struct.JNIEnv_, ptr %5, i32 0, i32 0
  %7 = load ptr, ptr %6, align 8
  %8 = getelementptr inbounds %struct.JNINativeInterface_, ptr %7, i32 0, i32 180
  %9 = load ptr, ptr %8, align 8
  %10 = load i32, ptr %4, align 4
  %11 = call noundef ptr %9(ptr noundef %5, i32 noundef %10)
  ret ptr %11
}

; Function Attrs: mustprogress uwtable
define hidden ptr @get_proc_handle(ptr noundef %0, ptr noundef %1) #0 {
  %3 = alloca ptr, align 8
  %4 = alloca ptr, align 8
  %5 = alloca i64, align 8
  store ptr %0, ptr %3, align 8
  store ptr %1, ptr %4, align 8
  %6 = load ptr, ptr %3, align 8
  %7 = load ptr, ptr %4, align 8
  %8 = load ptr, ptr @_ZL18p_ps_prochandle_ID, align 8
  %9 = call noundef i64 @_ZN7JNIEnv_12GetLongFieldEP8_jobjectP9_jfieldID(ptr noundef nonnull align 8 dereferenceable(8) %6, ptr noundef %7, ptr noundef %8)
  store i64 %9, ptr %5, align 8
  %10 = load i64, ptr %5, align 8
  %11 = inttoptr i64 %10 to ptr
  ret ptr %11
}

; Function Attrs: mustprogress uwtable
define ptr @Java_sun_jvm_hotspot_debugger_linux_LinuxDebuggerLocal_getThreadIntegerRegisterSet0(ptr noundef %0, ptr noundef %1, i32 noundef %2) #0 {
  %4 = alloca ptr, align 8
  %5 = alloca ptr, align 8
  %6 = alloca ptr, align 8
  %7 = alloca i32, align 4
  %8 = alloca %struct.user_regs_struct, align 8
  %9 = alloca i8, align 1
  %10 = alloca ptr, align 8
  %11 = alloca ptr, align 8
  %12 = alloca ptr, align 8
  store ptr %0, ptr %5, align 8
  store ptr %1, ptr %6, align 8
  store i32 %2, ptr %7, align 4
  %13 = load ptr, ptr %5, align 8
  %14 = load ptr, ptr %6, align 8
  %15 = call ptr @get_proc_handle(ptr noundef %13, ptr noundef %14)
  store ptr %15, ptr %12, align 8
  %16 = load ptr, ptr %12, align 8
  %17 = load i32, ptr %7, align 4
  %18 = call zeroext i1 @get_lwp_regs(ptr noundef %16, i32 noundef %17, ptr noundef %8)
  %19 = zext i1 %18 to i32
  %20 = icmp ne i32 %19, 1
  br i1 %20, label %21, label %27

21:                                               ; preds = %3
  %22 = load ptr, ptr @stdout, align 8
  %23 = load i32, ptr %7, align 4
  %24 = call i32 (ptr, ptr, ...) @fprintf(ptr noundef %22, ptr noundef @.str.25, i32 noundef %23) #8
  %25 = load ptr, ptr @stdout, align 8
  %26 = call i32 @fflush(ptr noundef %25)
  store ptr null, ptr %4, align 8
  br label %142

27:                                               ; preds = %3
  %28 = load ptr, ptr %5, align 8
  %29 = call noundef ptr @_ZN7JNIEnv_12NewLongArrayEi(ptr noundef nonnull align 8 dereferenceable(8) %28, i32 noundef 28)
  store ptr %29, ptr %10, align 8
  %30 = load ptr, ptr %5, align 8
  %31 = call noundef ptr @_ZN7JNIEnv_17ExceptionOccurredEv(ptr noundef nonnull align 8 dereferenceable(8) %30)
  %32 = icmp ne ptr %31, null
  br i1 %32, label %33, label %34

33:                                               ; preds = %27
  store ptr null, ptr %4, align 8
  br label %142

34:                                               ; preds = %27
  %35 = load ptr, ptr %5, align 8
  %36 = load ptr, ptr %10, align 8
  %37 = call noundef ptr @_ZN7JNIEnv_20GetLongArrayElementsEP11_jlongArrayPh(ptr noundef nonnull align 8 dereferenceable(8) %35, ptr noundef %36, ptr noundef %9)
  store ptr %37, ptr %11, align 8
  %38 = getelementptr inbounds %struct.user_regs_struct, ptr %8, i32 0, i32 0
  %39 = load i64, ptr %38, align 8
  %40 = load ptr, ptr %11, align 8
  %41 = getelementptr inbounds i64, ptr %40, i64 0
  store i64 %39, ptr %41, align 8
  %42 = getelementptr inbounds %struct.user_regs_struct, ptr %8, i32 0, i32 1
  %43 = load i64, ptr %42, align 8
  %44 = load ptr, ptr %11, align 8
  %45 = getelementptr inbounds i64, ptr %44, i64 1
  store i64 %43, ptr %45, align 8
  %46 = getelementptr inbounds %struct.user_regs_struct, ptr %8, i32 0, i32 2
  %47 = load i64, ptr %46, align 8
  %48 = load ptr, ptr %11, align 8
  %49 = getelementptr inbounds i64, ptr %48, i64 2
  store i64 %47, ptr %49, align 8
  %50 = getelementptr inbounds %struct.user_regs_struct, ptr %8, i32 0, i32 3
  %51 = load i64, ptr %50, align 8
  %52 = load ptr, ptr %11, align 8
  %53 = getelementptr inbounds i64, ptr %52, i64 3
  store i64 %51, ptr %53, align 8
  %54 = getelementptr inbounds %struct.user_regs_struct, ptr %8, i32 0, i32 4
  %55 = load i64, ptr %54, align 8
  %56 = load ptr, ptr %11, align 8
  %57 = getelementptr inbounds i64, ptr %56, i64 10
  store i64 %55, ptr %57, align 8
  %58 = getelementptr inbounds %struct.user_regs_struct, ptr %8, i32 0, i32 5
  %59 = load i64, ptr %58, align 8
  %60 = load ptr, ptr %11, align 8
  %61 = getelementptr inbounds i64, ptr %60, i64 11
  store i64 %59, ptr %61, align 8
  %62 = getelementptr inbounds %struct.user_regs_struct, ptr %8, i32 0, i32 6
  %63 = load i64, ptr %62, align 8
  %64 = load ptr, ptr %11, align 8
  %65 = getelementptr inbounds i64, ptr %64, i64 4
  store i64 %63, ptr %65, align 8
  %66 = getelementptr inbounds %struct.user_regs_struct, ptr %8, i32 0, i32 7
  %67 = load i64, ptr %66, align 8
  %68 = load ptr, ptr %11, align 8
  %69 = getelementptr inbounds i64, ptr %68, i64 5
  store i64 %67, ptr %69, align 8
  %70 = getelementptr inbounds %struct.user_regs_struct, ptr %8, i32 0, i32 8
  %71 = load i64, ptr %70, align 8
  %72 = load ptr, ptr %11, align 8
  %73 = getelementptr inbounds i64, ptr %72, i64 6
  store i64 %71, ptr %73, align 8
  %74 = getelementptr inbounds %struct.user_regs_struct, ptr %8, i32 0, i32 9
  %75 = load i64, ptr %74, align 8
  %76 = load ptr, ptr %11, align 8
  %77 = getelementptr inbounds i64, ptr %76, i64 7
  store i64 %75, ptr %77, align 8
  %78 = getelementptr inbounds %struct.user_regs_struct, ptr %8, i32 0, i32 10
  %79 = load i64, ptr %78, align 8
  %80 = load ptr, ptr %11, align 8
  %81 = getelementptr inbounds i64, ptr %80, i64 14
  store i64 %79, ptr %81, align 8
  %82 = getelementptr inbounds %struct.user_regs_struct, ptr %8, i32 0, i32 11
  %83 = load i64, ptr %82, align 8
  %84 = load ptr, ptr %11, align 8
  %85 = getelementptr inbounds i64, ptr %84, i64 13
  store i64 %83, ptr %85, align 8
  %86 = getelementptr inbounds %struct.user_regs_struct, ptr %8, i32 0, i32 12
  %87 = load i64, ptr %86, align 8
  %88 = load ptr, ptr %11, align 8
  %89 = getelementptr inbounds i64, ptr %88, i64 12
  store i64 %87, ptr %89, align 8
  %90 = getelementptr inbounds %struct.user_regs_struct, ptr %8, i32 0, i32 13
  %91 = load i64, ptr %90, align 8
  %92 = load ptr, ptr %11, align 8
  %93 = getelementptr inbounds i64, ptr %92, i64 9
  store i64 %91, ptr %93, align 8
  %94 = getelementptr inbounds %struct.user_regs_struct, ptr %8, i32 0, i32 14
  %95 = load i64, ptr %94, align 8
  %96 = load ptr, ptr %11, align 8
  %97 = getelementptr inbounds i64, ptr %96, i64 8
  store i64 %95, ptr %97, align 8
  %98 = getelementptr inbounds %struct.user_regs_struct, ptr %8, i32 0, i32 16
  %99 = load i64, ptr %98, align 8
  %100 = load ptr, ptr %11, align 8
  %101 = getelementptr inbounds i64, ptr %100, i64 17
  store i64 %99, ptr %101, align 8
  %102 = getelementptr inbounds %struct.user_regs_struct, ptr %8, i32 0, i32 17
  %103 = load i64, ptr %102, align 8
  %104 = load ptr, ptr %11, align 8
  %105 = getelementptr inbounds i64, ptr %104, i64 18
  store i64 %103, ptr %105, align 8
  %106 = getelementptr inbounds %struct.user_regs_struct, ptr %8, i32 0, i32 19
  %107 = load i64, ptr %106, align 8
  %108 = load ptr, ptr %11, align 8
  %109 = getelementptr inbounds i64, ptr %108, i64 20
  store i64 %107, ptr %109, align 8
  %110 = getelementptr inbounds %struct.user_regs_struct, ptr %8, i32 0, i32 20
  %111 = load i64, ptr %110, align 8
  %112 = load ptr, ptr %11, align 8
  %113 = getelementptr inbounds i64, ptr %112, i64 21
  store i64 %111, ptr %113, align 8
  %114 = getelementptr inbounds %struct.user_regs_struct, ptr %8, i32 0, i32 21
  %115 = load i64, ptr %114, align 8
  %116 = load ptr, ptr %11, align 8
  %117 = getelementptr inbounds i64, ptr %116, i64 26
  store i64 %115, ptr %117, align 8
  %118 = getelementptr inbounds %struct.user_regs_struct, ptr %8, i32 0, i32 22
  %119 = load i64, ptr %118, align 8
  %120 = load ptr, ptr %11, align 8
  %121 = getelementptr inbounds i64, ptr %120, i64 27
  store i64 %119, ptr %121, align 8
  %122 = getelementptr inbounds %struct.user_regs_struct, ptr %8, i32 0, i32 23
  %123 = load i64, ptr %122, align 8
  %124 = load ptr, ptr %11, align 8
  %125 = getelementptr inbounds i64, ptr %124, i64 25
  store i64 %123, ptr %125, align 8
  %126 = getelementptr inbounds %struct.user_regs_struct, ptr %8, i32 0, i32 24
  %127 = load i64, ptr %126, align 8
  %128 = load ptr, ptr %11, align 8
  %129 = getelementptr inbounds i64, ptr %128, i64 24
  store i64 %127, ptr %129, align 8
  %130 = getelementptr inbounds %struct.user_regs_struct, ptr %8, i32 0, i32 25
  %131 = load i64, ptr %130, align 8
  %132 = load ptr, ptr %11, align 8
  %133 = getelementptr inbounds i64, ptr %132, i64 22
  store i64 %131, ptr %133, align 8
  %134 = getelementptr inbounds %struct.user_regs_struct, ptr %8, i32 0, i32 26
  %135 = load i64, ptr %134, align 8
  %136 = load ptr, ptr %11, align 8
  %137 = getelementptr inbounds i64, ptr %136, i64 23
  store i64 %135, ptr %137, align 8
  %138 = load ptr, ptr %5, align 8
  %139 = load ptr, ptr %10, align 8
  %140 = load ptr, ptr %11, align 8
  call void @_ZN7JNIEnv_24ReleaseLongArrayElementsEP11_jlongArrayPli(ptr noundef nonnull align 8 dereferenceable(8) %138, ptr noundef %139, ptr noundef %140, i32 noundef 0)
  %141 = load ptr, ptr %10, align 8
  store ptr %141, ptr %4, align 8
  br label %142

142:                                              ; preds = %34, %33, %21
  %143 = load ptr, ptr %4, align 8
  ret ptr %143
}