; Function Attrs: mustprogress uwtable
define noundef ptr @Java_sun_jvm_hotspot_debugger_linux_LinuxDebuggerLocal_getThreadIntegerRegisterSet0(ptr noundef %0, ptr noundef %1, i32 noundef %2) local_unnamed_addr #0 {
  %4 = alloca %struct.user_regs_struct, align 8
  %5 = alloca i8, align 1
  %6 = load ptr, ptr @_ZL18p_ps_prochandle_ID, align 8
  %7 = load ptr, ptr %0, align 8
  %8 = getelementptr inbounds i8, ptr %7, i64 808
  %9 = load ptr, ptr %8, align 8
  %10 = tail call noundef i64 %9(ptr noundef nonnull %0, ptr noundef %1, ptr noundef %6)
  %11 = inttoptr i64 %10 to ptr
  %12 = call zeroext i1 @get_lwp_regs(ptr noundef %11, i32 noundef %2, ptr noundef nonnull %4)
  br i1 %12, label %18, label %13

13:                                               ; preds = %3
  %14 = load ptr, ptr @stdout, align 8
  %15 = call i32 (ptr, ptr, ...) @fprintf(ptr noundef %14, ptr noundef nonnull @.str.25, i32 noundef %2) #13
  %16 = load ptr, ptr @stdout, align 8
  %17 = call i32 @fflush(ptr noundef %16)
  br label %98

18:                                               ; preds = %3
  %19 = load ptr, ptr %0, align 8
  %20 = getelementptr inbounds i8, ptr %19, i64 1440
  %21 = load ptr, ptr %20, align 8
  %22 = call noundef ptr %21(ptr noundef nonnull %0, i32 noundef 28)
  %23 = load ptr, ptr %0, align 8
  %24 = getelementptr inbounds i8, ptr %23, i64 120
  %25 = load ptr, ptr %24, align 8
  %26 = call noundef ptr %25(ptr noundef nonnull %0)
  %.not = icmp eq ptr %26, null
  br i1 %.not, label %27, label %98

27:                                               ; preds = %18
  %28 = load ptr, ptr %0, align 8
  %29 = getelementptr inbounds i8, ptr %28, i64 1504
  %30 = load ptr, ptr %29, align 8
  %31 = call noundef ptr %30(ptr noundef nonnull %0, ptr noundef %22, ptr noundef nonnull %5)
  %32 = load i64, ptr %4, align 8
  store i64 %32, ptr %31, align 8
  %33 = getelementptr inbounds i8, ptr %4, i64 8
  %34 = load i64, ptr %33, align 8
  %35 = getelementptr inbounds i8, ptr %31, i64 8
  store i64 %34, ptr %35, align 8
  %36 = getelementptr inbounds i8, ptr %4, i64 16
  %37 = load i64, ptr %36, align 8
  %38 = getelementptr inbounds i8, ptr %31, i64 16
  store i64 %37, ptr %38, align 8
  %39 = getelementptr inbounds i8, ptr %4, i64 24
  %40 = load i64, ptr %39, align 8
  %41 = getelementptr inbounds i8, ptr %31, i64 24
  store i64 %40, ptr %41, align 8
  %42 = getelementptr inbounds i8, ptr %4, i64 32
  %43 = getelementptr inbounds i8, ptr %31, i64 80
  %44 = load <2 x i64>, ptr %42, align 8
  store <2 x i64> %44, ptr %43, align 8
  %45 = getelementptr inbounds i8, ptr %4, i64 48
  %46 = load i64, ptr %45, align 8
  %47 = getelementptr inbounds i8, ptr %31, i64 32
  store i64 %46, ptr %47, align 8
  %48 = getelementptr inbounds i8, ptr %4, i64 56
  %49 = load i64, ptr %48, align 8
  %50 = getelementptr inbounds i8, ptr %31, i64 40
  store i64 %49, ptr %50, align 8
  %51 = getelementptr inbounds i8, ptr %4, i64 64
  %52 = load i64, ptr %51, align 8
  %53 = getelementptr inbounds i8, ptr %31, i64 48
  store i64 %52, ptr %53, align 8
  %54 = getelementptr inbounds i8, ptr %4, i64 72
  %55 = load i64, ptr %54, align 8
  %56 = getelementptr inbounds i8, ptr %31, i64 56
  store i64 %55, ptr %56, align 8
  %57 = getelementptr inbounds i8, ptr %4, i64 80
  %58 = load i64, ptr %57, align 8
  %59 = getelementptr inbounds i8, ptr %31, i64 112
  store i64 %58, ptr %59, align 8
  %60 = getelementptr inbounds i8, ptr %4, i64 88
  %61 = getelementptr inbounds i8, ptr %31, i64 96
  %62 = load <2 x i64>, ptr %60, align 8
  %63 = shufflevector <2 x i64> %62, <2 x i64> poison, <2 x i32> <i32 1, i32 0>
  store <2 x i64> %63, ptr %61, align 8
  %64 = getelementptr inbounds i8, ptr %4, i64 104
  %65 = load i64, ptr %64, align 8
  %66 = getelementptr inbounds i8, ptr %31, i64 72
  store i64 %65, ptr %66, align 8
  %67 = getelementptr inbounds i8, ptr %4, i64 112
  %68 = load i64, ptr %67, align 8
  %69 = getelementptr inbounds i8, ptr %31, i64 64
  store i64 %68, ptr %69, align 8
  %70 = getelementptr inbounds i8, ptr %4, i64 128
  %71 = load i64, ptr %70, align 8
  %72 = getelementptr inbounds i8, ptr %31, i64 136
  store i64 %71, ptr %72, align 8
  %73 = getelementptr inbounds i8, ptr %4, i64 136
  %74 = load i64, ptr %73, align 8
  %75 = getelementptr inbounds i8, ptr %31, i64 144
  store i64 %74, ptr %75, align 8
  %76 = getelementptr inbounds i8, ptr %4, i64 152
  %77 = load i64, ptr %76, align 8
  %78 = getelementptr inbounds i8, ptr %31, i64 160
  store i64 %77, ptr %78, align 8
  %79 = getelementptr inbounds i8, ptr %4, i64 160
  %80 = load i64, ptr %79, align 8
  %81 = getelementptr inbounds i8, ptr %31, i64 168
  store i64 %80, ptr %81, align 8
  %82 = getelementptr inbounds i8, ptr %4, i64 168
  %83 = getelementptr inbounds i8, ptr %31, i64 208
  %84 = load <2 x i64>, ptr %82, align 8
  store <2 x i64> %84, ptr %83, align 8
  %85 = getelementptr inbounds i8, ptr %4, i64 184
  %86 = getelementptr inbounds i8, ptr %31, i64 192
  %87 = load <2 x i64>, ptr %85, align 8
  %88 = shufflevector <2 x i64> %87, <2 x i64> poison, <2 x i32> <i32 1, i32 0>
  store <2 x i64> %88, ptr %86, align 8
  %89 = getelementptr inbounds i8, ptr %4, i64 200
  %90 = load i64, ptr %89, align 8
  %91 = getelementptr inbounds i8, ptr %31, i64 176
  store i64 %90, ptr %91, align 8
  %92 = getelementptr inbounds i8, ptr %4, i64 208
  %93 = load i64, ptr %92, align 8
  %94 = getelementptr inbounds i8, ptr %31, i64 184
  store i64 %93, ptr %94, align 8
  %95 = load ptr, ptr %0, align 8
  %96 = getelementptr inbounds i8, ptr %95, i64 1568
  %97 = load ptr, ptr %96, align 8
  call void %97(ptr noundef nonnull %0, ptr noundef %22, ptr noundef nonnull %31, i32 noundef 0)
  br label %98

98:                                               ; preds = %18, %27, %13
  %.0 = phi ptr [ null, %13 ], [ %22, %27 ], [ null, %18 ]
  ret ptr %.0
}